; Function Attrs: mustprogress nounwind uwtable
define dso_local noundef zeroext i1 @_ZNK8tinygltf5LighteqERKS0_(ptr noundef nonnull align 8 dereferenceable(88) %0, ptr noundef nonnull align 8 dereferenceable(88) %1) local_unnamed_addr #4 align 2 personality ptr @__gxx_personality_v0 {
  %3 = getelementptr inbounds i8, ptr %0, i64 32
  %4 = getelementptr inbounds i8, ptr %1, i64 32
  %.val = load ptr, ptr %3, align 8
  %5 = getelementptr inbounds i8, ptr %0, i64 40
  %.val4 = load ptr, ptr %5, align 8
  %.val5 = load ptr, ptr %4, align 8
  %6 = getelementptr inbounds i8, ptr %1, i64 40
  %.val6 = load ptr, ptr %6, align 8
  %7 = ptrtoint ptr %.val4 to i64
  %8 = ptrtoint ptr %.val to i64
  %9 = sub i64 %7, %8
  %10 = ptrtoint ptr %.val6 to i64
  %11 = ptrtoint ptr %.val5 to i64
  %12 = sub i64 %10, %11
  %.not.i = icmp eq i64 %9, %12
  br i1 %.not.i, label %.preheader.i, label %_ZN8tinygltfL6EqualsERKSt6vectorIdSaIdEES4_.exit

.preheader.i:                                     ; preds = %2
  %13 = lshr exact i64 %9, 3
  %14 = trunc i64 %13 to i32
  %15 = icmp sgt i32 %14, 0
  br i1 %15, label %.lr.ph.preheader.i, label %.loopexit

.lr.ph.preheader.i:                               ; preds = %.preheader.i
  %wide.trip.count.i = and i64 %13, 2147483647
  br label %.lr.ph.i

16:                                               ; preds = %.lr.ph.i
  %indvars.iv.next.i = add nuw nsw i64 %indvars.iv.i, 1
  %exitcond.not.i = icmp eq i64 %indvars.iv.next.i, %wide.trip.count.i
  br i1 %exitcond.not.i, label %.loopexit, label %.lr.ph.i, !llvm.loop !5

.lr.ph.i:                                         ; preds = %16, %.lr.ph.preheader.i
  %indvars.iv.i = phi i64 [ 0, %.lr.ph.preheader.i ], [ %indvars.iv.next.i, %16 ]
  %17 = getelementptr inbounds double, ptr %.val5, i64 %indvars.iv.i
  %18 = load double, ptr %17, align 8
  %19 = getelementptr inbounds double, ptr %.val, i64 %indvars.iv.i
  %20 = load double, ptr %19, align 8
  %21 = fsub double %18, %20
  %22 = tail call double @llvm.fabs.f64(double %21)
  %23 = fcmp olt double %22, 0x3D719799812DEA11
  br i1 %23, label %16, label %_ZN8tinygltfL6EqualsERKSt6vectorIdSaIdEES4_.exit

.loopexit:                                        ; preds = %16, %.preheader.i
  %24 = tail call noundef i64 @_ZNKSt7__cxx1112basic_stringIcSt11char_traitsIcESaIcEE4sizeEv(ptr noundef nonnull align 8 dereferenceable(32) %0) #30
  %25 = tail call noundef i64 @_ZNKSt7__cxx1112basic_stringIcSt11char_traitsIcESaIcEE4sizeEv(ptr noundef nonnull align 8 dereferenceable(32) %1) #30
  %26 = icmp eq i64 %24, %25
  br i1 %26, label %27, label %_ZN8tinygltfL6EqualsERKSt6vectorIdSaIdEES4_.exit

27:                                               ; preds = %.loopexit
  %28 = tail call noundef ptr @_ZNKSt7__cxx1112basic_stringIcSt11char_traitsIcESaIcEE4dataEv(ptr noundef nonnull align 8 dereferenceable(32) %0) #30
  %29 = tail call noundef ptr @_ZNKSt7__cxx1112basic_stringIcSt11char_traitsIcESaIcEE4dataEv(ptr noundef nonnull align 8 dereferenceable(32) %1) #30
  %30 = tail call noundef i64 @_ZNKSt7__cxx1112basic_stringIcSt11char_traitsIcESaIcEE4sizeEv(ptr noundef nonnull align 8 dereferenceable(32) %0) #30
  %31 = icmp eq i64 %30, 0
  br i1 %31, label %_ZSteqIcEN9__gnu_cxx11__enable_ifIXsr9__is_charIT_EE7__valueEbE6__typeERKNSt7__cxx1112basic_stringIS2_St11char_traitsIS2_ESaIS2_EEESC_.exit.thread, label %_ZSteqIcEN9__gnu_cxx11__enable_ifIXsr9__is_charIT_EE7__valueEbE6__typeERKNSt7__cxx1112basic_stringIS2_St11char_traitsIS2_ESaIS2_EEESC_.exit

_ZSteqIcEN9__gnu_cxx11__enable_ifIXsr9__is_charIT_EE7__valueEbE6__typeERKNSt7__cxx1112basic_stringIS2_St11char_traitsIS2_ESaIS2_EEESC_.exit: ; preds = %27
  %bcmp.i = tail call i32 @bcmp(ptr %28, ptr %29, i64 %30)
  %32 = icmp eq i32 %bcmp.i, 0
  br i1 %32, label %_ZSteqIcEN9__gnu_cxx11__enable_ifIXsr9__is_charIT_EE7__valueEbE6__typeERKNSt7__cxx1112basic_stringIS2_St11char_traitsIS2_ESaIS2_EEESC_.exit.thread, label %_ZN8tinygltfL6EqualsERKSt6vectorIdSaIdEES4_.exit

_ZSteqIcEN9__gnu_cxx11__enable_ifIXsr9__is_charIT_EE7__valueEbE6__typeERKNSt7__cxx1112basic_stringIS2_St11char_traitsIS2_ESaIS2_EEESC_.exit.thread: ; preds = %27, %_ZSteqIcEN9__gnu_cxx11__enable_ifIXsr9__is_charIT_EE7__valueEbE6__typeERKNSt7__cxx1112basic_stringIS2_St11char_traitsIS2_ESaIS2_EEESC_.exit
  %33 = getelementptr inbounds i8, ptr %0, i64 56
  %34 = getelementptr inbounds i8, ptr %1, i64 56
  %35 = tail call noundef i64 @_ZNKSt7__cxx1112basic_stringIcSt11char_traitsIcESaIcEE4sizeEv(ptr noundef nonnull align 8 dereferenceable(32) %33) #30
  %36 = tail call noundef i64 @_ZNKSt7__cxx1112basic_stringIcSt11char_traitsIcESaIcEE4sizeEv(ptr noundef nonnull align 8 dereferenceable(32) %34) #30
  %37 = icmp eq i64 %35, %36
  br i1 %37, label %38, label %_ZN8tinygltfL6EqualsERKSt6vectorIdSaIdEES4_.exit

38:                                               ; preds = %_ZSteqIcEN9__gnu_cxx11__enable_ifIXsr9__is_charIT_EE7__valueEbE6__typeERKNSt7__cxx1112basic_stringIS2_St11char_traitsIS2_ESaIS2_EEESC_.exit.thread
  %39 = tail call noundef ptr @_ZNKSt7__cxx1112basic_stringIcSt11char_traitsIcESaIcEE4dataEv(ptr noundef nonnull align 8 dereferenceable(32) %33) #30
  %40 = tail call noundef ptr @_ZNKSt7__cxx1112basic_stringIcSt11char_traitsIcESaIcEE4dataEv(ptr noundef nonnull align 8 dereferenceable(32) %34) #30
  %41 = tail call noundef i64 @_ZNKSt7__cxx1112basic_stringIcSt11char_traitsIcESaIcEE4sizeEv(ptr noundef nonnull align 8 dereferenceable(32) %33) #30
  %42 = icmp eq i64 %41, 0
  br i1 %42, label %_ZN8tinygltfL6EqualsERKSt6vectorIdSaIdEES4_.exit, label %43

43:                                               ; preds = %38
  %bcmp.i7 = tail call i32 @bcmp(ptr %39, ptr %40, i64 %41)
  %44 = icmp eq i32 %bcmp.i7, 0
  br label %_ZN8tinygltfL6EqualsERKSt6vectorIdSaIdEES4_.exit

_ZN8tinygltfL6EqualsERKSt6vectorIdSaIdEES4_.exit: ; preds = %.lr.ph.i, %.loopexit, %43, %38, %_ZSteqIcEN9__gnu_cxx11__enable_ifIXsr9__is_charIT_EE7__valueEbE6__typeERKNSt7__cxx1112basic_stringIS2_St11char_traitsIS2_ESaIS2_EEESC_.exit.thread, %2, %_ZSteqIcEN9__gnu_cxx11__enable_ifIXsr9__is_charIT_EE7__valueEbE6__typeERKNSt7__cxx1112basic_stringIS2_St11char_traitsIS2_ESaIS2_EEESC_.exit
  %45 = phi i1 [ false, %_ZSteqIcEN9__gnu_cxx11__enable_ifIXsr9__is_charIT_EE7__valueEbE6__typeERKNSt7__cxx1112basic_stringIS2_St11char_traitsIS2_ESaIS2_EEESC_.exit ], [ false, %2 ], [ false, %_ZSteqIcEN9__gnu_cxx11__enable_ifIXsr9__is_charIT_EE7__valueEbE6__typeERKNSt7__cxx1112basic_stringIS2_St11char_traitsIS2_ESaIS2_EEESC_.exit.thread ], [ %44, %43 ], [ true, %38 ], [ false, %.loopexit ], [ false, %.lr.ph.i ]
  ret i1 %45
}